target datalayout = "e-m:e-p270:32:32-p271:32:32-p272:64:64-i64:64-i128:128-f80:128-n8:16:32:64-S128"
target triple = "x86_64-pc-linux-gnu"

; Function Attrs: nounwind uwtable
define internal void @sbr_autocorrelate_c(ptr noundef %0, ptr noundef %1) #1 {
  %3 = alloca ptr, align 8
  %4 = alloca ptr, align 8
  %5 = alloca float, align 4
  %6 = alloca float, align 4
  %7 = alloca float, align 4
  %8 = alloca float, align 4
  %9 = alloca float, align 4
  %10 = alloca i32, align 4
  store ptr %0, ptr %3, align 8, !tbaa !21
  store ptr %1, ptr %4, align 8, !tbaa !21
  call void @llvm.lifetime.start.p0(i64 4, ptr %5) #5
  %11 = load ptr, ptr %3, align 8, !tbaa !21
  %12 = getelementptr inbounds [2 x float], ptr %11, i64 0
  %13 = getelementptr inbounds [2 x float], ptr %12, i64 0, i64 0
  %14 = load float, ptr %13, align 4, !tbaa !25
  %15 = load ptr, ptr %3, align 8, !tbaa !21
  %16 = getelementptr inbounds [2 x float], ptr %15, i64 2
  %17 = getelementptr inbounds [2 x float], ptr %16, i64 0, i64 0
  %18 = load float, ptr %17, align 4, !tbaa !25
  %19 = load ptr, ptr %3, align 8, !tbaa !21
  %20 = getelementptr inbounds [2 x float], ptr %19, i64 0
  %21 = getelementptr inbounds [2 x float], ptr %20, i64 0, i64 1
  %22 = load float, ptr %21, align 4, !tbaa !25
  %23 = load ptr, ptr %3, align 8, !tbaa !21
  %24 = getelementptr inbounds [2 x float], ptr %23, i64 2
  %25 = getelementptr inbounds [2 x float], ptr %24, i64 0, i64 1
  %26 = load float, ptr %25, align 4, !tbaa !25
  %27 = fmul nsz float %22, %26
  %28 = call nsz float @llvm.fmuladd.f32(float %14, float %18, float %27)
  store float %28, ptr %5, align 4, !tbaa !25
  call void @llvm.lifetime.start.p0(i64 4, ptr %6) #5
  %29 = load ptr, ptr %3, align 8, !tbaa !21
  %30 = getelementptr inbounds [2 x float], ptr %29, i64 0
  %31 = getelementptr inbounds [2 x float], ptr %30, i64 0, i64 0
  %32 = load float, ptr %31, align 4, !tbaa !25
  %33 = load ptr, ptr %3, align 8, !tbaa !21
  %34 = getelementptr inbounds [2 x float], ptr %33, i64 2
  %35 = getelementptr inbounds [2 x float], ptr %34, i64 0, i64 1
  %36 = load float, ptr %35, align 4, !tbaa !25
  %37 = load ptr, ptr %3, align 8, !tbaa !21
  %38 = getelementptr inbounds [2 x float], ptr %37, i64 0
  %39 = getelementptr inbounds [2 x float], ptr %38, i64 0, i64 1
  %40 = load float, ptr %39, align 4, !tbaa !25
  %41 = load ptr, ptr %3, align 8, !tbaa !21
  %42 = getelementptr inbounds [2 x float], ptr %41, i64 2
  %43 = getelementptr inbounds [2 x float], ptr %42, i64 0, i64 0
  %44 = load float, ptr %43, align 4, !tbaa !25
  %45 = fmul nsz float %40, %44
  %46 = fneg nsz float %45
  %47 = call nsz float @llvm.fmuladd.f32(float %32, float %36, float %46)
  store float %47, ptr %6, align 4, !tbaa !25
  call void @llvm.lifetime.start.p0(i64 4, ptr %7) #5
  store float 0.000000e+00, ptr %7, align 4, !tbaa !25
  call void @llvm.lifetime.start.p0(i64 4, ptr %8) #5
  store float 0.000000e+00, ptr %8, align 4, !tbaa !25
  call void @llvm.lifetime.start.p0(i64 4, ptr %9) #5
  store float 0.000000e+00, ptr %9, align 4, !tbaa !25
  call void @llvm.lifetime.start.p0(i64 4, ptr %10) #5
  store i32 1, ptr %10, align 4, !tbaa !23
  br label %48

48:                                               ; preds = %202, %2
  %49 = load i32, ptr %10, align 4, !tbaa !23
  %50 = icmp slt i32 %49, 38
  br i1 %50, label %51, label %205

51:                                               ; preds = %48
  %52 = load ptr, ptr %3, align 8, !tbaa !21
  %53 = load i32, ptr %10, align 4, !tbaa !23
  %54 = sext i32 %53 to i64
  %55 = getelementptr inbounds [2 x float], ptr %52, i64 %54
  %56 = getelementptr inbounds [2 x float], ptr %55, i64 0, i64 0
  %57 = load float, ptr %56, align 4, !tbaa !25
  %58 = load ptr, ptr %3, align 8, !tbaa !21
  %59 = load i32, ptr %10, align 4, !tbaa !23
  %60 = sext i32 %59 to i64
  %61 = getelementptr inbounds [2 x float], ptr %58, i64 %60
  %62 = getelementptr inbounds [2 x float], ptr %61, i64 0, i64 0
  %63 = load float, ptr %62, align 4, !tbaa !25
  %64 = load ptr, ptr %3, align 8, !tbaa !21
  %65 = load i32, ptr %10, align 4, !tbaa !23
  %66 = sext i32 %65 to i64
  %67 = getelementptr inbounds [2 x float], ptr %64, i64 %66
  %68 = getelementptr inbounds [2 x float], ptr %67, i64 0, i64 1
  %69 = load float, ptr %68, align 4, !tbaa !25
  %70 = load ptr, ptr %3, align 8, !tbaa !21
  %71 = load i32, ptr %10, align 4, !tbaa !23
  %72 = sext i32 %71 to i64
  %73 = getelementptr inbounds [2 x float], ptr %70, i64 %72
  %74 = getelementptr inbounds [2 x float], ptr %73, i64 0, i64 1
  %75 = load float, ptr %74, align 4, !tbaa !25
  %76 = fmul nsz float %69, %75
  %77 = call nsz float @llvm.fmuladd.f32(float %57, float %63, float %76)
  %78 = load float, ptr %9, align 4, !tbaa !25
  %79 = fadd nsz float %78, %77
  store float %79, ptr %9, align 4, !tbaa !25
  %80 = load ptr, ptr %3, align 8, !tbaa !21
  %81 = load i32, ptr %10, align 4, !tbaa !23
  %82 = sext i32 %81 to i64
  %83 = getelementptr inbounds [2 x float], ptr %80, i64 %82
  %84 = getelementptr inbounds [2 x float], ptr %83, i64 0, i64 0
  %85 = load float, ptr %84, align 4, !tbaa !25
  %86 = load ptr, ptr %3, align 8, !tbaa !21
  %87 = load i32, ptr %10, align 4, !tbaa !23
  %88 = add nsw i32 %87, 1
  %89 = sext i32 %88 to i64
  %90 = getelementptr inbounds [2 x float], ptr %86, i64 %89
  %91 = getelementptr inbounds [2 x float], ptr %90, i64 0, i64 0
  %92 = load float, ptr %91, align 4, !tbaa !25
  %93 = load ptr, ptr %3, align 8, !tbaa !21
  %94 = load i32, ptr %10, align 4, !tbaa !23
  %95 = sext i32 %94 to i64
  %96 = getelementptr inbounds [2 x float], ptr %93, i64 %95
  %97 = getelementptr inbounds [2 x float], ptr %96, i64 0, i64 1
  %98 = load float, ptr %97, align 4, !tbaa !25
  %99 = load ptr, ptr %3, align 8, !tbaa !21
  %100 = load i32, ptr %10, align 4, !tbaa !23
  %101 = add nsw i32 %100, 1
  %102 = sext i32 %101 to i64
  %103 = getelementptr inbounds [2 x float], ptr %99, i64 %102
  %104 = getelementptr inbounds [2 x float], ptr %103, i64 0, i64 1
  %105 = load float, ptr %104, align 4, !tbaa !25
  %106 = fmul nsz float %98, %105
  %107 = call nsz float @llvm.fmuladd.f32(float %85, float %92, float %106)
  %108 = load float, ptr %7, align 4, !tbaa !25
  %109 = fadd nsz float %108, %107
  store float %109, ptr %7, align 4, !tbaa !25
  %110 = load ptr, ptr %3, align 8, !tbaa !21
  %111 = load i32, ptr %10, align 4, !tbaa !23
  %112 = sext i32 %111 to i64
  %113 = getelementptr inbounds [2 x float], ptr %110, i64 %112
  %114 = getelementptr inbounds [2 x float], ptr %113, i64 0, i64 0
  %115 = load float, ptr %114, align 4, !tbaa !25
  %116 = load ptr, ptr %3, align 8, !tbaa !21
  %117 = load i32, ptr %10, align 4, !tbaa !23
  %118 = add nsw i32 %117, 1
  %119 = sext i32 %118 to i64
  %120 = getelementptr inbounds [2 x float], ptr %116, i64 %119
  %121 = getelementptr inbounds [2 x float], ptr %120, i64 0, i64 1
  %122 = load float, ptr %121, align 4, !tbaa !25
  %123 = load ptr, ptr %3, align 8, !tbaa !21
  %124 = load i32, ptr %10, align 4, !tbaa !23
  %125 = sext i32 %124 to i64
  %126 = getelementptr inbounds [2 x float], ptr %123, i64 %125
  %127 = getelementptr inbounds [2 x float], ptr %126, i64 0, i64 1
  %128 = load float, ptr %127, align 4, !tbaa !25
  %129 = load ptr, ptr %3, align 8, !tbaa !21
  %130 = load i32, ptr %10, align 4, !tbaa !23
  %131 = add nsw i32 %130, 1
  %132 = sext i32 %131 to i64
  %133 = getelementptr inbounds [2 x float], ptr %129, i64 %132
  %134 = getelementptr inbounds [2 x float], ptr %133, i64 0, i64 0
  %135 = load float, ptr %134, align 4, !tbaa !25
  %136 = fmul nsz float %128, %135
  %137 = fneg nsz float %136
  %138 = call nsz float @llvm.fmuladd.f32(float %115, float %122, float %137)
  %139 = load float, ptr %8, align 4, !tbaa !25
  %140 = fadd nsz float %139, %138
  store float %140, ptr %8, align 4, !tbaa !25
  %141 = load ptr, ptr %3, align 8, !tbaa !21
  %142 = load i32, ptr %10, align 4, !tbaa !23
  %143 = sext i32 %142 to i64
  %144 = getelementptr inbounds [2 x float], ptr %141, i64 %143
  %145 = getelementptr inbounds [2 x float], ptr %144, i64 0, i64 0
  %146 = load float, ptr %145, align 4, !tbaa !25
  %147 = load ptr, ptr %3, align 8, !tbaa !21
  %148 = load i32, ptr %10, align 4, !tbaa !23
  %149 = add nsw i32 %148, 2
  %150 = sext i32 %149 to i64
  %151 = getelementptr inbounds [2 x float], ptr %147, i64 %150
  %152 = getelementptr inbounds [2 x float], ptr %151, i64 0, i64 0
  %153 = load float, ptr %152, align 4, !tbaa !25
  %154 = load ptr, ptr %3, align 8, !tbaa !21
  %155 = load i32, ptr %10, align 4, !tbaa !23
  %156 = sext i32 %155 to i64
  %157 = getelementptr inbounds [2 x float], ptr %154, i64 %156
  %158 = getelementptr inbounds [2 x float], ptr %157, i64 0, i64 1
  %159 = load float, ptr %158, align 4, !tbaa !25
  %160 = load ptr, ptr %3, align 8, !tbaa !21
  %161 = load i32, ptr %10, align 4, !tbaa !23
  %162 = add nsw i32 %161, 2
  %163 = sext i32 %162 to i64
  %164 = getelementptr inbounds [2 x float], ptr %160, i64 %163
  %165 = getelementptr inbounds [2 x float], ptr %164, i64 0, i64 1
  %166 = load float, ptr %165, align 4, !tbaa !25
  %167 = fmul nsz float %159, %166
  %168 = call nsz float @llvm.fmuladd.f32(float %146, float %153, float %167)
  %169 = load float, ptr %5, align 4, !tbaa !25
  %170 = fadd nsz float %169, %168
  store float %170, ptr %5, align 4, !tbaa !25
  %171 = load ptr, ptr %3, align 8, !tbaa !21
  %172 = load i32, ptr %10, align 4, !tbaa !23
  %173 = sext i32 %172 to i64
  %174 = getelementptr inbounds [2 x float], ptr %171, i64 %173
  %175 = getelementptr inbounds [2 x float], ptr %174, i64 0, i64 0
  %176 = load float, ptr %175, align 4, !tbaa !25
  %177 = load ptr, ptr %3, align 8, !tbaa !21
  %178 = load i32, ptr %10, align 4, !tbaa !23
  %179 = add nsw i32 %178, 2
  %180 = sext i32 %179 to i64
  %181 = getelementptr inbounds [2 x float], ptr %177, i64 %180
  %182 = getelementptr inbounds [2 x float], ptr %181, i64 0, i64 1
  %183 = load float, ptr %182, align 4, !tbaa !25
  %184 = load ptr, ptr %3, align 8, !tbaa !21
  %185 = load i32, ptr %10, align 4, !tbaa !23
  %186 = sext i32 %185 to i64
  %187 = getelementptr inbounds [2 x float], ptr %184, i64 %186
  %188 = getelementptr inbounds [2 x float], ptr %187, i64 0, i64 1
  %189 = load float, ptr %188, align 4, !tbaa !25
  %190 = load ptr, ptr %3, align 8, !tbaa !21
  %191 = load i32, ptr %10, align 4, !tbaa !23
  %192 = add nsw i32 %191, 2
  %193 = sext i32 %192 to i64
  %194 = getelementptr inbounds [2 x float], ptr %190, i64 %193
  %195 = getelementptr inbounds [2 x float], ptr %194, i64 0, i64 0
  %196 = load float, ptr %195, align 4, !tbaa !25
  %197 = fmul nsz float %189, %196
  %198 = fneg nsz float %197
  %199 = call nsz float @llvm.fmuladd.f32(float %176, float %183, float %198)
  %200 = load float, ptr %6, align 4, !tbaa !25
  %201 = fadd nsz float %200, %199
  store float %201, ptr %6, align 4, !tbaa !25
  br label %202

202:                                              ; preds = %51
  %203 = load i32, ptr %10, align 4, !tbaa !23
  %204 = add nsw i32 %203, 1
  store i32 %204, ptr %10, align 4, !tbaa !23
  br label %48, !llvm.loop !38

205:                                              ; preds = %48
  %206 = load float, ptr %5, align 4, !tbaa !25
  %207 = load ptr, ptr %4, align 8, !tbaa !21
  %208 = getelementptr inbounds [2 x [2 x float]], ptr %207, i64 0
  %209 = getelementptr inbounds [2 x [2 x float]], ptr %208, i64 0, i64 1
  %210 = getelementptr inbounds [2 x float], ptr %209, i64 0, i64 0
  store float %206, ptr %210, align 4, !tbaa !25
  %211 = load float, ptr %6, align 4, !tbaa !25
  %212 = load ptr, ptr %4, align 8, !tbaa !21
  %213 = getelementptr inbounds [2 x [2 x float]], ptr %212, i64 0
  %214 = getelementptr inbounds [2 x [2 x float]], ptr %213, i64 0, i64 1
  %215 = getelementptr inbounds [2 x float], ptr %214, i64 0, i64 1
  store float %211, ptr %215, align 4, !tbaa !25
  %216 = load float, ptr %9, align 4, !tbaa !25
  %217 = load ptr, ptr %3, align 8, !tbaa !21
  %218 = getelementptr inbounds [2 x float], ptr %217, i64 0
  %219 = getelementptr inbounds [2 x float], ptr %218, i64 0, i64 0
  %220 = load float, ptr %219, align 4, !tbaa !25
  %221 = load ptr, ptr %3, align 8, !tbaa !21
  %222 = getelementptr inbounds [2 x float], ptr %221, i64 0
  %223 = getelementptr inbounds [2 x float], ptr %222, i64 0, i64 0
  %224 = load float, ptr %223, align 4, !tbaa !25
  %225 = call nsz float @llvm.fmuladd.f32(float %220, float %224, float %216)
  %226 = load ptr, ptr %3, align 8, !tbaa !21
  %227 = getelementptr inbounds [2 x float], ptr %226, i64 0
  %228 = getelementptr inbounds [2 x float], ptr %227, i64 0, i64 1
  %229 = load float, ptr %228, align 4, !tbaa !25
  %230 = load ptr, ptr %3, align 8, !tbaa !21
  %231 = getelementptr inbounds [2 x float], ptr %230, i64 0
  %232 = getelementptr inbounds [2 x float], ptr %231, i64 0, i64 1
  %233 = load float, ptr %232, align 4, !tbaa !25
  %234 = call nsz float @llvm.fmuladd.f32(float %229, float %233, float %225)
  %235 = load ptr, ptr %4, align 8, !tbaa !21
  %236 = getelementptr inbounds [2 x [2 x float]], ptr %235, i64 2
  %237 = getelementptr inbounds [2 x [2 x float]], ptr %236, i64 0, i64 1
  %238 = getelementptr inbounds [2 x float], ptr %237, i64 0, i64 0
  store float %234, ptr %238, align 4, !tbaa !25
  %239 = load float, ptr %9, align 4, !tbaa !25
  %240 = load ptr, ptr %3, align 8, !tbaa !21
  %241 = getelementptr inbounds [2 x float], ptr %240, i64 38
  %242 = getelementptr inbounds [2 x float], ptr %241, i64 0, i64 0
  %243 = load float, ptr %242, align 4, !tbaa !25
  %244 = load ptr, ptr %3, align 8, !tbaa !21
  %245 = getelementptr inbounds [2 x float], ptr %244, i64 38
  %246 = getelementptr inbounds [2 x float], ptr %245, i64 0, i64 0
  %247 = load float, ptr %246, align 4, !tbaa !25
  %248 = call nsz float @llvm.fmuladd.f32(float %243, float %247, float %239)
  %249 = load ptr, ptr %3, align 8, !tbaa !21
  %250 = getelementptr inbounds [2 x float], ptr %249, i64 38
  %251 = getelementptr inbounds [2 x float], ptr %250, i64 0, i64 1
  %252 = load float, ptr %251, align 4, !tbaa !25
  %253 = load ptr, ptr %3, align 8, !tbaa !21
  %254 = getelementptr inbounds [2 x float], ptr %253, i64 38
  %255 = getelementptr inbounds [2 x float], ptr %254, i64 0, i64 1
  %256 = load float, ptr %255, align 4, !tbaa !25
  %257 = call nsz float @llvm.fmuladd.f32(float %252, float %256, float %248)
  %258 = load ptr, ptr %4, align 8, !tbaa !21
  %259 = getelementptr inbounds [2 x [2 x float]], ptr %258, i64 1
  %260 = getelementptr inbounds [2 x [2 x float]], ptr %259, i64 0, i64 0
  %261 = getelementptr inbounds [2 x float], ptr %260, i64 0, i64 0
  store float %257, ptr %261, align 4, !tbaa !25
  %262 = load float, ptr %7, align 4, !tbaa !25
  %263 = load ptr, ptr %3, align 8, !tbaa !21
  %264 = getelementptr inbounds [2 x float], ptr %263, i64 0
  %265 = getelementptr inbounds [2 x float], ptr %264, i64 0, i64 0
  %266 = load float, ptr %265, align 4, !tbaa !25
  %267 = load ptr, ptr %3, align 8, !tbaa !21
  %268 = getelementptr inbounds [2 x float], ptr %267, i64 1
  %269 = getelementptr inbounds [2 x float], ptr %268, i64 0, i64 0
  %270 = load float, ptr %269, align 4, !tbaa !25
  %271 = call nsz float @llvm.fmuladd.f32(float %266, float %270, float %262)
  %272 = load ptr, ptr %3, align 8, !tbaa !21
  %273 = getelementptr inbounds [2 x float], ptr %272, i64 0
  %274 = getelementptr inbounds [2 x float], ptr %273, i64 0, i64 1
  %275 = load float, ptr %274, align 4, !tbaa !25
  %276 = load ptr, ptr %3, align 8, !tbaa !21
  %277 = getelementptr inbounds [2 x float], ptr %276, i64 1
  %278 = getelementptr inbounds [2 x float], ptr %277, i64 0, i64 1
  %279 = load float, ptr %278, align 4, !tbaa !25
  %280 = call nsz float @llvm.fmuladd.f32(float %275, float %279, float %271)
  %281 = load ptr, ptr %4, align 8, !tbaa !21
  %282 = getelementptr inbounds [2 x [2 x float]], ptr %281, i64 1
  %283 = getelementptr inbounds [2 x [2 x float]], ptr %282, i64 0, i64 1
  %284 = getelementptr inbounds [2 x float], ptr %283, i64 0, i64 0
  store float %280, ptr %284, align 4, !tbaa !25
  %285 = load float, ptr %8, align 4, !tbaa !25
  %286 = load ptr, ptr %3, align 8, !tbaa !21
  %287 = getelementptr inbounds [2 x float], ptr %286, i64 0
  %288 = getelementptr inbounds [2 x float], ptr %287, i64 0, i64 0
  %289 = load float, ptr %288, align 4, !tbaa !25
  %290 = load ptr, ptr %3, align 8, !tbaa !21
  %291 = getelementptr inbounds [2 x float], ptr %290, i64 1
  %292 = getelementptr inbounds [2 x float], ptr %291, i64 0, i64 1
  %293 = load float, ptr %292, align 4, !tbaa !25
  %294 = call nsz float @llvm.fmuladd.f32(float %289, float %293, float %285)
  %295 = load ptr, ptr %3, align 8, !tbaa !21
  %296 = getelementptr inbounds [2 x float], ptr %295, i64 0
  %297 = getelementptr inbounds [2 x float], ptr %296, i64 0, i64 1
  %298 = load float, ptr %297, align 4, !tbaa !25
  %299 = load ptr, ptr %3, align 8, !tbaa !21
  %300 = getelementptr inbounds [2 x float], ptr %299, i64 1
  %301 = getelementptr inbounds [2 x float], ptr %300, i64 0, i64 0
  %302 = load float, ptr %301, align 4, !tbaa !25
  %303 = fneg nsz float %298
  %304 = call nsz float @llvm.fmuladd.f32(float %303, float %302, float %294)
  %305 = load ptr, ptr %4, align 8, !tbaa !21
  %306 = getelementptr inbounds [2 x [2 x float]], ptr %305, i64 1
  %307 = getelementptr inbounds [2 x [2 x float]], ptr %306, i64 0, i64 1
  %308 = getelementptr inbounds [2 x float], ptr %307, i64 0, i64 1
  store float %304, ptr %308, align 4, !tbaa !25
  %309 = load float, ptr %7, align 4, !tbaa !25
  %310 = load ptr, ptr %3, align 8, !tbaa !21
  %311 = getelementptr inbounds [2 x float], ptr %310, i64 38
  %312 = getelementptr inbounds [2 x float], ptr %311, i64 0, i64 0
  %313 = load float, ptr %312, align 4, !tbaa !25
  %314 = load ptr, ptr %3, align 8, !tbaa !21
  %315 = getelementptr inbounds [2 x float], ptr %314, i64 39
  %316 = getelementptr inbounds [2 x float], ptr %315, i64 0, i64 0
  %317 = load float, ptr %316, align 4, !tbaa !25
  %318 = call nsz float @llvm.fmuladd.f32(float %313, float %317, float %309)
  %319 = load ptr, ptr %3, align 8, !tbaa !21
  %320 = getelementptr inbounds [2 x float], ptr %319, i64 38
  %321 = getelementptr inbounds [2 x float], ptr %320, i64 0, i64 1
  %322 = load float, ptr %321, align 4, !tbaa !25
  %323 = load ptr, ptr %3, align 8, !tbaa !21
  %324 = getelementptr inbounds [2 x float], ptr %323, i64 39
  %325 = getelementptr inbounds [2 x float], ptr %324, i64 0, i64 1
  %326 = load float, ptr %325, align 4, !tbaa !25
  %327 = call nsz float @llvm.fmuladd.f32(float %322, float %326, float %318)
  %328 = load ptr, ptr %4, align 8, !tbaa !21
  %329 = getelementptr inbounds [2 x [2 x float]], ptr %328, i64 0
  %330 = getelementptr inbounds [2 x [2 x float]], ptr %329, i64 0, i64 0
  %331 = getelementptr inbounds [2 x float], ptr %330, i64 0, i64 0
  store float %327, ptr %331, align 4, !tbaa !25
  %332 = load float, ptr %8, align 4, !tbaa !25
  %333 = load ptr, ptr %3, align 8, !tbaa !21
  %334 = getelementptr inbounds [2 x float], ptr %333, i64 38
  %335 = getelementptr inbounds [2 x float], ptr %334, i64 0, i64 0
  %336 = load float, ptr %335, align 4, !tbaa !25
  %337 = load ptr, ptr %3, align 8, !tbaa !21
  %338 = getelementptr inbounds [2 x float], ptr %337, i64 39
  %339 = getelementptr inbounds [2 x float], ptr %338, i64 0, i64 1
  %340 = load float, ptr %339, align 4, !tbaa !25
  %341 = call nsz float @llvm.fmuladd.f32(float %336, float %340, float %332)
  %342 = load ptr, ptr %3, align 8, !tbaa !21
  %343 = getelementptr inbounds [2 x float], ptr %342, i64 38
  %344 = getelementptr inbounds [2 x float], ptr %343, i64 0, i64 1
  %345 = load float, ptr %344, align 4, !tbaa !25
  %346 = load ptr, ptr %3, align 8, !tbaa !21
  %347 = getelementptr inbounds [2 x float], ptr %346, i64 39
  %348 = getelementptr inbounds [2 x float], ptr %347, i64 0, i64 0
  %349 = load float, ptr %348, align 4, !tbaa !25
  %350 = fneg nsz float %345
  %351 = call nsz float @llvm.fmuladd.f32(float %350, float %349, float %341)
  %352 = load ptr, ptr %4, align 8, !tbaa !21
  %353 = getelementptr inbounds [2 x [2 x float]], ptr %352, i64 0
  %354 = getelementptr inbounds [2 x [2 x float]], ptr %353, i64 0, i64 0
  %355 = getelementptr inbounds [2 x float], ptr %354, i64 0, i64 1
  store float %351, ptr %355, align 4, !tbaa !25
  call void @llvm.lifetime.end.p0(i64 4, ptr %10) #5
  call void @llvm.lifetime.end.p0(i64 4, ptr %9) #5
  call void @llvm.lifetime.end.p0(i64 4, ptr %8) #5
  call void @llvm.lifetime.end.p0(i64 4, ptr %7) #5
  call void @llvm.lifetime.end.p0(i64 4, ptr %6) #5
  call void @llvm.lifetime.end.p0(i64 4, ptr %5) #5
  ret void
}