; Function Attrs: nofree norecurse nosync nounwind memory(argmem: readwrite) uwtable
define internal void @sbr_autocorrelate_c(ptr noundef readonly captures(none) %0, ptr noundef writeonly captures(none) %1) #1 {
  %3 = load float, ptr %0, align 4, !tbaa !19
  %4 = getelementptr inbounds nuw i8, ptr %0, i64 16
  %5 = load float, ptr %4, align 4, !tbaa !19
  %6 = getelementptr inbounds nuw i8, ptr %0, i64 4
  %7 = load float, ptr %6, align 4, !tbaa !19
  %8 = getelementptr inbounds nuw i8, ptr %0, i64 20
  %9 = load float, ptr %8, align 4, !tbaa !19
  %10 = fmul nsz float %7, %9
  %11 = tail call nsz float @llvm.fmuladd.f32(float %3, float %5, float %10)
  %12 = fneg nsz float %5
  %13 = fmul nsz float %7, %12
  %14 = tail call nsz float @llvm.fmuladd.f32(float %3, float %9, float %13)
  %.phi.trans.insert = getelementptr inbounds nuw i8, ptr %0, i64 8
  %.pre = load float, ptr %.phi.trans.insert, align 4, !tbaa !19
  %.phi.trans.insert110 = getelementptr inbounds nuw i8, ptr %0, i64 12
  %.pre111 = load float, ptr %.phi.trans.insert110, align 4, !tbaa !19
  br label %15

15:                                               ; preds = %2, %15
  %16 = phi float [ %.pre111, %2 ], [ %25, %15 ]
  %17 = phi float [ %.pre, %2 ], [ %23, %15 ]
  %indvars.iv = phi i64 [ 1, %2 ], [ %indvars.iv.next, %15 ]
  %.094103 = phi float [ 0.000000e+00, %2 ], [ %21, %15 ]
  %.095102 = phi float [ 0.000000e+00, %2 ], [ %32, %15 ]
  %.096101 = phi float [ 0.000000e+00, %2 ], [ %28, %15 ]
  %.097100 = phi float [ %14, %2 ], [ %43, %15 ]
  %.09899 = phi float [ %11, %2 ], [ %39, %15 ]
  %18 = getelementptr inbounds nuw [2 x float], ptr %0, i64 %indvars.iv
  %19 = fmul nsz float %16, %16
  %20 = tail call nsz float @llvm.fmuladd.f32(float %17, float %17, float %19)
  %21 = fadd nsz float %.094103, %20
  %indvars.iv.next = add nuw nsw i64 %indvars.iv, 1
  %22 = getelementptr inbounds nuw [2 x float], ptr %0, i64 %indvars.iv.next
  %23 = load float, ptr %22, align 4, !tbaa !19
  %24 = getelementptr inbounds nuw i8, ptr %22, i64 4
  %25 = load float, ptr %24, align 4, !tbaa !19
  %26 = fmul nsz float %16, %25
  %27 = tail call nsz float @llvm.fmuladd.f32(float %17, float %23, float %26)
  %28 = fadd nsz float %.096101, %27
  %29 = fneg nsz float %23
  %30 = fmul nsz float %16, %29
  %31 = tail call nsz float @llvm.fmuladd.f32(float %17, float %25, float %30)
  %32 = fadd nsz float %.095102, %31
  %33 = getelementptr inbounds nuw i8, ptr %18, i64 16
  %34 = load float, ptr %33, align 4, !tbaa !19
  %35 = getelementptr inbounds nuw i8, ptr %18, i64 20
  %36 = load float, ptr %35, align 4, !tbaa !19
  %37 = fmul nsz float %16, %36
  %38 = tail call nsz float @llvm.fmuladd.f32(float %17, float %34, float %37)
  %39 = fadd nsz float %.09899, %38
  %40 = fneg nsz float %34
  %41 = fmul nsz float %16, %40
  %42 = tail call nsz float @llvm.fmuladd.f32(float %17, float %36, float %41)
  %43 = fadd nsz float %.097100, %42
  %exitcond.not = icmp eq i64 %indvars.iv.next, 38
  br i1 %exitcond.not, label %44, label %15, !llvm.loop !30

44:                                               ; preds = %15
  %45 = getelementptr inbounds nuw i8, ptr %1, i64 8
  store float %39, ptr %45, align 4, !tbaa !19
  %46 = getelementptr inbounds nuw i8, ptr %1, i64 12
  store float %43, ptr %46, align 4, !tbaa !19
  %47 = load float, ptr %0, align 4, !tbaa !19
  %48 = tail call nsz float @llvm.fmuladd.f32(float %47, float %47, float %21)
  %49 = load float, ptr %6, align 4, !tbaa !19
  %50 = tail call nsz float @llvm.fmuladd.f32(float %49, float %49, float %48)
  %51 = getelementptr inbounds nuw i8, ptr %1, i64 40
  store float %50, ptr %51, align 4, !tbaa !19
  %52 = getelementptr inbounds nuw i8, ptr %0, i64 304
  %53 = load float, ptr %52, align 4, !tbaa !19
  %54 = tail call nsz float @llvm.fmuladd.f32(float %53, float %53, float %21)
  %55 = getelementptr inbounds nuw i8, ptr %0, i64 308
  %56 = load float, ptr %55, align 4, !tbaa !19
  %57 = tail call nsz float @llvm.fmuladd.f32(float %56, float %56, float %54)
  %58 = getelementptr inbounds nuw i8, ptr %1, i64 16
  store float %57, ptr %58, align 4, !tbaa !19
  %59 = load float, ptr %0, align 4, !tbaa !19
  %60 = load float, ptr %.phi.trans.insert, align 4, !tbaa !19
  %61 = tail call nsz float @llvm.fmuladd.f32(float %59, float %60, float %28)
  %62 = load float, ptr %6, align 4, !tbaa !19
  %63 = getelementptr inbounds nuw i8, ptr %0, i64 12
  %64 = load float, ptr %63, align 4, !tbaa !19
  %65 = tail call nsz float @llvm.fmuladd.f32(float %62, float %64, float %61)
  %66 = getelementptr inbounds nuw i8, ptr %1, i64 24
  store float %65, ptr %66, align 4, !tbaa !19
  %67 = load float, ptr %0, align 4, !tbaa !19
  %68 = load float, ptr %63, align 4, !tbaa !19
  %69 = tail call nsz float @llvm.fmuladd.f32(float %67, float %68, float %32)
  %70 = load float, ptr %6, align 4, !tbaa !19
  %71 = load float, ptr %.phi.trans.insert, align 4, !tbaa !19
  %72 = fneg nsz float %70
  %73 = tail call nsz float @llvm.fmuladd.f32(float %72, float %71, float %69)
  %74 = getelementptr inbounds nuw i8, ptr %1, i64 28
  store float %73, ptr %74, align 4, !tbaa !19
  %75 = load float, ptr %52, align 4, !tbaa !19
  %76 = getelementptr inbounds nuw i8, ptr %0, i64 312
  %77 = load float, ptr %76, align 4, !tbaa !19
  %78 = tail call nsz float @llvm.fmuladd.f32(float %75, float %77, float %28)
  %79 = load float, ptr %55, align 4, !tbaa !19
  %80 = getelementptr inbounds nuw i8, ptr %0, i64 316
  %81 = load float, ptr %80, align 4, !tbaa !19
  %82 = tail call nsz float @llvm.fmuladd.f32(float %79, float %81, float %78)
  store float %82, ptr %1, align 4, !tbaa !19
  %83 = load float, ptr %52, align 4, !tbaa !19
  %84 = load float, ptr %80, align 4, !tbaa !19
  %85 = tail call nsz float @llvm.fmuladd.f32(float %83, float %84, float %32)
  %86 = load float, ptr %55, align 4, !tbaa !19
  %87 = load float, ptr %76, align 4, !tbaa !19
  %88 = fneg nsz float %86
  %89 = tail call nsz float @llvm.fmuladd.f32(float %88, float %87, float %85)
  %90 = getelementptr inbounds nuw i8, ptr %1, i64 4
  store float %89, ptr %90, align 4, !tbaa !19
  ret void
}